ARM GAS  C:\Users\Administrator\AppData\Local\Temp\cc6qiYyN.s 			page 1


   1              		.cpu cortex-m0
   2              		.fpu softvfp
   3              		.eabi_attribute 20, 1
   4              		.eabi_attribute 21, 1
   5              		.eabi_attribute 23, 3
   6              		.eabi_attribute 24, 1
   7              		.eabi_attribute 25, 1
   8              		.eabi_attribute 26, 1
   9              		.eabi_attribute 30, 1
  10              		.eabi_attribute 34, 0
  11              		.eabi_attribute 18, 4
  12              		.code	16
  13              		.file	"UART_SCB_IRQ.c"
  14              		.text
  15              	.Ltext0:
  16              		.cfi_sections	.debug_frame
  17              		.section	.text.UART_SCB_IRQ_SetVector,"ax",%progbits
  18              		.align	2
  19              		.global	UART_SCB_IRQ_SetVector
  20              		.code	16
  21              		.thumb_func
  22              		.type	UART_SCB_IRQ_SetVector, %function
  23              	UART_SCB_IRQ_SetVector:
  24              	.LFB3:
  25              		.file 1 ".\\Generated_Source\\PSoC4\\UART_SCB_IRQ.c"
   1:.\Generated_Source\PSoC4/UART_SCB_IRQ.c **** /*******************************************************************************
   2:.\Generated_Source\PSoC4/UART_SCB_IRQ.c **** * File Name: UART_SCB_IRQ.c  
   3:.\Generated_Source\PSoC4/UART_SCB_IRQ.c **** * Version 1.70
   4:.\Generated_Source\PSoC4/UART_SCB_IRQ.c **** *
   5:.\Generated_Source\PSoC4/UART_SCB_IRQ.c **** *  Description:
   6:.\Generated_Source\PSoC4/UART_SCB_IRQ.c **** *   API for controlling the state of an interrupt.
   7:.\Generated_Source\PSoC4/UART_SCB_IRQ.c **** *
   8:.\Generated_Source\PSoC4/UART_SCB_IRQ.c **** *
   9:.\Generated_Source\PSoC4/UART_SCB_IRQ.c **** *  Note:
  10:.\Generated_Source\PSoC4/UART_SCB_IRQ.c **** *
  11:.\Generated_Source\PSoC4/UART_SCB_IRQ.c **** ********************************************************************************
  12:.\Generated_Source\PSoC4/UART_SCB_IRQ.c **** * Copyright 2008-2015, Cypress Semiconductor Corporation.  All rights reserved.
  13:.\Generated_Source\PSoC4/UART_SCB_IRQ.c **** * You may use this file only in accordance with the license, terms, conditions, 
  14:.\Generated_Source\PSoC4/UART_SCB_IRQ.c **** * disclaimers, and limitations in the end user license agreement accompanying 
  15:.\Generated_Source\PSoC4/UART_SCB_IRQ.c **** * the software package with which this file was provided.
  16:.\Generated_Source\PSoC4/UART_SCB_IRQ.c **** *******************************************************************************/
  17:.\Generated_Source\PSoC4/UART_SCB_IRQ.c **** 
  18:.\Generated_Source\PSoC4/UART_SCB_IRQ.c **** 
  19:.\Generated_Source\PSoC4/UART_SCB_IRQ.c **** #include <cydevice_trm.h>
  20:.\Generated_Source\PSoC4/UART_SCB_IRQ.c **** #include <CyLib.h>
  21:.\Generated_Source\PSoC4/UART_SCB_IRQ.c **** #include <UART_SCB_IRQ.h>
  22:.\Generated_Source\PSoC4/UART_SCB_IRQ.c **** #include "cyapicallbacks.h"
  23:.\Generated_Source\PSoC4/UART_SCB_IRQ.c **** 
  24:.\Generated_Source\PSoC4/UART_SCB_IRQ.c **** #if !defined(UART_SCB_IRQ__REMOVED) /* Check for removal by optimization */
  25:.\Generated_Source\PSoC4/UART_SCB_IRQ.c **** 
  26:.\Generated_Source\PSoC4/UART_SCB_IRQ.c **** /*******************************************************************************
  27:.\Generated_Source\PSoC4/UART_SCB_IRQ.c **** *  Place your includes, defines and code here 
  28:.\Generated_Source\PSoC4/UART_SCB_IRQ.c **** ********************************************************************************/
  29:.\Generated_Source\PSoC4/UART_SCB_IRQ.c **** /* `#START UART_SCB_IRQ_intc` */
  30:.\Generated_Source\PSoC4/UART_SCB_IRQ.c **** 
  31:.\Generated_Source\PSoC4/UART_SCB_IRQ.c **** /* `#END` */
  32:.\Generated_Source\PSoC4/UART_SCB_IRQ.c **** 
ARM GAS  C:\Users\Administrator\AppData\Local\Temp\cc6qiYyN.s 			page 2


  33:.\Generated_Source\PSoC4/UART_SCB_IRQ.c **** extern cyisraddress CyRamVectors[CYINT_IRQ_BASE + CY_NUM_INTERRUPTS];
  34:.\Generated_Source\PSoC4/UART_SCB_IRQ.c **** 
  35:.\Generated_Source\PSoC4/UART_SCB_IRQ.c **** /* Declared in startup, used to set unused interrupts to. */
  36:.\Generated_Source\PSoC4/UART_SCB_IRQ.c **** CY_ISR_PROTO(IntDefaultHandler);
  37:.\Generated_Source\PSoC4/UART_SCB_IRQ.c **** 
  38:.\Generated_Source\PSoC4/UART_SCB_IRQ.c **** 
  39:.\Generated_Source\PSoC4/UART_SCB_IRQ.c **** /*******************************************************************************
  40:.\Generated_Source\PSoC4/UART_SCB_IRQ.c **** * Function Name: UART_SCB_IRQ_Start
  41:.\Generated_Source\PSoC4/UART_SCB_IRQ.c **** ********************************************************************************
  42:.\Generated_Source\PSoC4/UART_SCB_IRQ.c **** *
  43:.\Generated_Source\PSoC4/UART_SCB_IRQ.c **** * Summary:
  44:.\Generated_Source\PSoC4/UART_SCB_IRQ.c **** *  Set up the interrupt and enable it. This function disables the interrupt, 
  45:.\Generated_Source\PSoC4/UART_SCB_IRQ.c **** *  sets the default interrupt vector, sets the priority from the value in the
  46:.\Generated_Source\PSoC4/UART_SCB_IRQ.c **** *  Design Wide Resources Interrupt Editor, then enables the interrupt to the 
  47:.\Generated_Source\PSoC4/UART_SCB_IRQ.c **** *  interrupt controller.
  48:.\Generated_Source\PSoC4/UART_SCB_IRQ.c **** *
  49:.\Generated_Source\PSoC4/UART_SCB_IRQ.c **** * Parameters:  
  50:.\Generated_Source\PSoC4/UART_SCB_IRQ.c **** *   None
  51:.\Generated_Source\PSoC4/UART_SCB_IRQ.c **** *
  52:.\Generated_Source\PSoC4/UART_SCB_IRQ.c **** * Return:
  53:.\Generated_Source\PSoC4/UART_SCB_IRQ.c **** *   None
  54:.\Generated_Source\PSoC4/UART_SCB_IRQ.c **** *
  55:.\Generated_Source\PSoC4/UART_SCB_IRQ.c **** *******************************************************************************/
  56:.\Generated_Source\PSoC4/UART_SCB_IRQ.c **** void UART_SCB_IRQ_Start(void)
  57:.\Generated_Source\PSoC4/UART_SCB_IRQ.c **** {
  58:.\Generated_Source\PSoC4/UART_SCB_IRQ.c ****     /* For all we know the interrupt is active. */
  59:.\Generated_Source\PSoC4/UART_SCB_IRQ.c ****     UART_SCB_IRQ_Disable();
  60:.\Generated_Source\PSoC4/UART_SCB_IRQ.c **** 
  61:.\Generated_Source\PSoC4/UART_SCB_IRQ.c ****     /* Set the ISR to point to the UART_SCB_IRQ Interrupt. */
  62:.\Generated_Source\PSoC4/UART_SCB_IRQ.c ****     UART_SCB_IRQ_SetVector(&UART_SCB_IRQ_Interrupt);
  63:.\Generated_Source\PSoC4/UART_SCB_IRQ.c **** 
  64:.\Generated_Source\PSoC4/UART_SCB_IRQ.c ****     /* Set the priority. */
  65:.\Generated_Source\PSoC4/UART_SCB_IRQ.c ****     UART_SCB_IRQ_SetPriority((uint8)UART_SCB_IRQ_INTC_PRIOR_NUMBER);
  66:.\Generated_Source\PSoC4/UART_SCB_IRQ.c **** 
  67:.\Generated_Source\PSoC4/UART_SCB_IRQ.c ****     /* Enable it. */
  68:.\Generated_Source\PSoC4/UART_SCB_IRQ.c ****     UART_SCB_IRQ_Enable();
  69:.\Generated_Source\PSoC4/UART_SCB_IRQ.c **** }
  70:.\Generated_Source\PSoC4/UART_SCB_IRQ.c **** 
  71:.\Generated_Source\PSoC4/UART_SCB_IRQ.c **** 
  72:.\Generated_Source\PSoC4/UART_SCB_IRQ.c **** /*******************************************************************************
  73:.\Generated_Source\PSoC4/UART_SCB_IRQ.c **** * Function Name: UART_SCB_IRQ_StartEx
  74:.\Generated_Source\PSoC4/UART_SCB_IRQ.c **** ********************************************************************************
  75:.\Generated_Source\PSoC4/UART_SCB_IRQ.c **** *
  76:.\Generated_Source\PSoC4/UART_SCB_IRQ.c **** * Summary:
  77:.\Generated_Source\PSoC4/UART_SCB_IRQ.c **** *  Sets up the interrupt and enables it. This function disables the interrupt,
  78:.\Generated_Source\PSoC4/UART_SCB_IRQ.c **** *  sets the interrupt vector based on the address passed in, sets the priority 
  79:.\Generated_Source\PSoC4/UART_SCB_IRQ.c **** *  from the value in the Design Wide Resources Interrupt Editor, then enables 
  80:.\Generated_Source\PSoC4/UART_SCB_IRQ.c **** *  the interrupt to the interrupt controller.
  81:.\Generated_Source\PSoC4/UART_SCB_IRQ.c **** *  
  82:.\Generated_Source\PSoC4/UART_SCB_IRQ.c **** *  When defining ISR functions, the CY_ISR and CY_ISR_PROTO macros should be 
  83:.\Generated_Source\PSoC4/UART_SCB_IRQ.c **** *  used to provide consistent definition across compilers:
  84:.\Generated_Source\PSoC4/UART_SCB_IRQ.c **** *  
  85:.\Generated_Source\PSoC4/UART_SCB_IRQ.c **** *  Function definition example:
  86:.\Generated_Source\PSoC4/UART_SCB_IRQ.c **** *   CY_ISR(MyISR)
  87:.\Generated_Source\PSoC4/UART_SCB_IRQ.c **** *   {
  88:.\Generated_Source\PSoC4/UART_SCB_IRQ.c **** *   }
  89:.\Generated_Source\PSoC4/UART_SCB_IRQ.c **** *   Function prototype example:
ARM GAS  C:\Users\Administrator\AppData\Local\Temp\cc6qiYyN.s 			page 3


  90:.\Generated_Source\PSoC4/UART_SCB_IRQ.c **** *   CY_ISR_PROTO(MyISR);
  91:.\Generated_Source\PSoC4/UART_SCB_IRQ.c **** *
  92:.\Generated_Source\PSoC4/UART_SCB_IRQ.c **** * Parameters:  
  93:.\Generated_Source\PSoC4/UART_SCB_IRQ.c **** *   address: Address of the ISR to set in the interrupt vector table.
  94:.\Generated_Source\PSoC4/UART_SCB_IRQ.c **** *
  95:.\Generated_Source\PSoC4/UART_SCB_IRQ.c **** * Return:
  96:.\Generated_Source\PSoC4/UART_SCB_IRQ.c **** *   None
  97:.\Generated_Source\PSoC4/UART_SCB_IRQ.c **** *
  98:.\Generated_Source\PSoC4/UART_SCB_IRQ.c **** *******************************************************************************/
  99:.\Generated_Source\PSoC4/UART_SCB_IRQ.c **** void UART_SCB_IRQ_StartEx(cyisraddress address)
 100:.\Generated_Source\PSoC4/UART_SCB_IRQ.c **** {
 101:.\Generated_Source\PSoC4/UART_SCB_IRQ.c ****     /* For all we know the interrupt is active. */
 102:.\Generated_Source\PSoC4/UART_SCB_IRQ.c ****     UART_SCB_IRQ_Disable();
 103:.\Generated_Source\PSoC4/UART_SCB_IRQ.c **** 
 104:.\Generated_Source\PSoC4/UART_SCB_IRQ.c ****     /* Set the ISR to point to the UART_SCB_IRQ Interrupt. */
 105:.\Generated_Source\PSoC4/UART_SCB_IRQ.c ****     UART_SCB_IRQ_SetVector(address);
 106:.\Generated_Source\PSoC4/UART_SCB_IRQ.c **** 
 107:.\Generated_Source\PSoC4/UART_SCB_IRQ.c ****     /* Set the priority. */
 108:.\Generated_Source\PSoC4/UART_SCB_IRQ.c ****     UART_SCB_IRQ_SetPriority((uint8)UART_SCB_IRQ_INTC_PRIOR_NUMBER);
 109:.\Generated_Source\PSoC4/UART_SCB_IRQ.c **** 
 110:.\Generated_Source\PSoC4/UART_SCB_IRQ.c ****     /* Enable it. */
 111:.\Generated_Source\PSoC4/UART_SCB_IRQ.c ****     UART_SCB_IRQ_Enable();
 112:.\Generated_Source\PSoC4/UART_SCB_IRQ.c **** }
 113:.\Generated_Source\PSoC4/UART_SCB_IRQ.c **** 
 114:.\Generated_Source\PSoC4/UART_SCB_IRQ.c **** 
 115:.\Generated_Source\PSoC4/UART_SCB_IRQ.c **** /*******************************************************************************
 116:.\Generated_Source\PSoC4/UART_SCB_IRQ.c **** * Function Name: UART_SCB_IRQ_Stop
 117:.\Generated_Source\PSoC4/UART_SCB_IRQ.c **** ********************************************************************************
 118:.\Generated_Source\PSoC4/UART_SCB_IRQ.c **** *
 119:.\Generated_Source\PSoC4/UART_SCB_IRQ.c **** * Summary:
 120:.\Generated_Source\PSoC4/UART_SCB_IRQ.c **** *   Disables and removes the interrupt.
 121:.\Generated_Source\PSoC4/UART_SCB_IRQ.c **** *
 122:.\Generated_Source\PSoC4/UART_SCB_IRQ.c **** * Parameters:  
 123:.\Generated_Source\PSoC4/UART_SCB_IRQ.c **** *   None
 124:.\Generated_Source\PSoC4/UART_SCB_IRQ.c **** *
 125:.\Generated_Source\PSoC4/UART_SCB_IRQ.c **** * Return:
 126:.\Generated_Source\PSoC4/UART_SCB_IRQ.c **** *   None
 127:.\Generated_Source\PSoC4/UART_SCB_IRQ.c **** *
 128:.\Generated_Source\PSoC4/UART_SCB_IRQ.c **** *******************************************************************************/
 129:.\Generated_Source\PSoC4/UART_SCB_IRQ.c **** void UART_SCB_IRQ_Stop(void)
 130:.\Generated_Source\PSoC4/UART_SCB_IRQ.c **** {
 131:.\Generated_Source\PSoC4/UART_SCB_IRQ.c ****     /* Disable this interrupt. */
 132:.\Generated_Source\PSoC4/UART_SCB_IRQ.c ****     UART_SCB_IRQ_Disable();
 133:.\Generated_Source\PSoC4/UART_SCB_IRQ.c **** 
 134:.\Generated_Source\PSoC4/UART_SCB_IRQ.c ****     /* Set the ISR to point to the passive one. */
 135:.\Generated_Source\PSoC4/UART_SCB_IRQ.c ****     UART_SCB_IRQ_SetVector(&IntDefaultHandler);
 136:.\Generated_Source\PSoC4/UART_SCB_IRQ.c **** }
 137:.\Generated_Source\PSoC4/UART_SCB_IRQ.c **** 
 138:.\Generated_Source\PSoC4/UART_SCB_IRQ.c **** 
 139:.\Generated_Source\PSoC4/UART_SCB_IRQ.c **** /*******************************************************************************
 140:.\Generated_Source\PSoC4/UART_SCB_IRQ.c **** * Function Name: UART_SCB_IRQ_Interrupt
 141:.\Generated_Source\PSoC4/UART_SCB_IRQ.c **** ********************************************************************************
 142:.\Generated_Source\PSoC4/UART_SCB_IRQ.c **** *
 143:.\Generated_Source\PSoC4/UART_SCB_IRQ.c **** * Summary:
 144:.\Generated_Source\PSoC4/UART_SCB_IRQ.c **** *   The default Interrupt Service Routine for UART_SCB_IRQ.
 145:.\Generated_Source\PSoC4/UART_SCB_IRQ.c **** *
 146:.\Generated_Source\PSoC4/UART_SCB_IRQ.c **** *   Add custom code between the START and END comments to keep the next version
ARM GAS  C:\Users\Administrator\AppData\Local\Temp\cc6qiYyN.s 			page 4


 147:.\Generated_Source\PSoC4/UART_SCB_IRQ.c **** *   of this file from over-writing your code.
 148:.\Generated_Source\PSoC4/UART_SCB_IRQ.c **** *
 149:.\Generated_Source\PSoC4/UART_SCB_IRQ.c **** *   Note You may use either the default ISR by using this API, or you may define
 150:.\Generated_Source\PSoC4/UART_SCB_IRQ.c **** *   your own separate ISR through ISR_StartEx().
 151:.\Generated_Source\PSoC4/UART_SCB_IRQ.c **** *
 152:.\Generated_Source\PSoC4/UART_SCB_IRQ.c **** * Parameters:  
 153:.\Generated_Source\PSoC4/UART_SCB_IRQ.c **** *   None
 154:.\Generated_Source\PSoC4/UART_SCB_IRQ.c **** *
 155:.\Generated_Source\PSoC4/UART_SCB_IRQ.c **** * Return:
 156:.\Generated_Source\PSoC4/UART_SCB_IRQ.c **** *   None
 157:.\Generated_Source\PSoC4/UART_SCB_IRQ.c **** *
 158:.\Generated_Source\PSoC4/UART_SCB_IRQ.c **** *******************************************************************************/
 159:.\Generated_Source\PSoC4/UART_SCB_IRQ.c **** //CY_ISR(UART_SCB_IRQ_Interrupt)
 160:.\Generated_Source\PSoC4/UART_SCB_IRQ.c **** //{
 161:.\Generated_Source\PSoC4/UART_SCB_IRQ.c **** //    #ifdef UART_SCB_IRQ_INTERRUPT_INTERRUPT_CALLBACK
 162:.\Generated_Source\PSoC4/UART_SCB_IRQ.c **** //        UART_SCB_IRQ_Interrupt_InterruptCallback();
 163:.\Generated_Source\PSoC4/UART_SCB_IRQ.c **** //    #endif /* UART_SCB_IRQ_INTERRUPT_INTERRUPT_CALLBACK */ 
 164:.\Generated_Source\PSoC4/UART_SCB_IRQ.c **** //
 165:.\Generated_Source\PSoC4/UART_SCB_IRQ.c **** //    /*  Place your Interrupt code here. */
 166:.\Generated_Source\PSoC4/UART_SCB_IRQ.c **** //    /* `#START UART_SCB_IRQ_Interrupt` */
 167:.\Generated_Source\PSoC4/UART_SCB_IRQ.c **** ////
 168:.\Generated_Source\PSoC4/UART_SCB_IRQ.c **** //    /* `#END` */
 169:.\Generated_Source\PSoC4/UART_SCB_IRQ.c **** //}
 170:.\Generated_Source\PSoC4/UART_SCB_IRQ.c **** 
 171:.\Generated_Source\PSoC4/UART_SCB_IRQ.c **** 
 172:.\Generated_Source\PSoC4/UART_SCB_IRQ.c **** /*******************************************************************************
 173:.\Generated_Source\PSoC4/UART_SCB_IRQ.c **** * Function Name: UART_SCB_IRQ_SetVector
 174:.\Generated_Source\PSoC4/UART_SCB_IRQ.c **** ********************************************************************************
 175:.\Generated_Source\PSoC4/UART_SCB_IRQ.c **** *
 176:.\Generated_Source\PSoC4/UART_SCB_IRQ.c **** * Summary:
 177:.\Generated_Source\PSoC4/UART_SCB_IRQ.c **** *   Change the ISR vector for the Interrupt. Note calling UART_SCB_IRQ_Start
 178:.\Generated_Source\PSoC4/UART_SCB_IRQ.c **** *   will override any effect this method would have had. To set the vector 
 179:.\Generated_Source\PSoC4/UART_SCB_IRQ.c **** *   before the component has been started use UART_SCB_IRQ_StartEx instead.
 180:.\Generated_Source\PSoC4/UART_SCB_IRQ.c **** * 
 181:.\Generated_Source\PSoC4/UART_SCB_IRQ.c **** *   When defining ISR functions, the CY_ISR and CY_ISR_PROTO macros should be 
 182:.\Generated_Source\PSoC4/UART_SCB_IRQ.c **** *   used to provide consistent definition across compilers:
 183:.\Generated_Source\PSoC4/UART_SCB_IRQ.c **** *
 184:.\Generated_Source\PSoC4/UART_SCB_IRQ.c **** *   Function definition example:
 185:.\Generated_Source\PSoC4/UART_SCB_IRQ.c **** *   CY_ISR(MyISR)
 186:.\Generated_Source\PSoC4/UART_SCB_IRQ.c **** *   {
 187:.\Generated_Source\PSoC4/UART_SCB_IRQ.c **** *   }
 188:.\Generated_Source\PSoC4/UART_SCB_IRQ.c **** *
 189:.\Generated_Source\PSoC4/UART_SCB_IRQ.c **** *   Function prototype example:
 190:.\Generated_Source\PSoC4/UART_SCB_IRQ.c **** *     CY_ISR_PROTO(MyISR);
 191:.\Generated_Source\PSoC4/UART_SCB_IRQ.c **** *
 192:.\Generated_Source\PSoC4/UART_SCB_IRQ.c **** * Parameters:
 193:.\Generated_Source\PSoC4/UART_SCB_IRQ.c **** *   address: Address of the ISR to set in the interrupt vector table.
 194:.\Generated_Source\PSoC4/UART_SCB_IRQ.c **** *
 195:.\Generated_Source\PSoC4/UART_SCB_IRQ.c **** * Return:
 196:.\Generated_Source\PSoC4/UART_SCB_IRQ.c **** *   None
 197:.\Generated_Source\PSoC4/UART_SCB_IRQ.c **** *
 198:.\Generated_Source\PSoC4/UART_SCB_IRQ.c **** *******************************************************************************/
 199:.\Generated_Source\PSoC4/UART_SCB_IRQ.c **** void UART_SCB_IRQ_SetVector(cyisraddress address)
 200:.\Generated_Source\PSoC4/UART_SCB_IRQ.c **** {
  26              		.loc 1 200 0
  27              		.cfi_startproc
  28              	.LVL0:
ARM GAS  C:\Users\Administrator\AppData\Local\Temp\cc6qiYyN.s 			page 5


 201:.\Generated_Source\PSoC4/UART_SCB_IRQ.c ****     CyRamVectors[CYINT_IRQ_BASE + UART_SCB_IRQ__INTC_NUMBER] = address;
  29              		.loc 1 201 0
  30 0000 014B     		ldr	r3, .L2
  31 0002 9866     		str	r0, [r3, #104]
 202:.\Generated_Source\PSoC4/UART_SCB_IRQ.c **** }
  32              		.loc 1 202 0
  33              		@ sp needed
  34 0004 7047     		bx	lr
  35              	.L3:
  36 0006 C046     		.align	2
  37              	.L2:
  38 0008 00000000 		.word	CyRamVectors
  39              		.cfi_endproc
  40              	.LFE3:
  41              		.size	UART_SCB_IRQ_SetVector, .-UART_SCB_IRQ_SetVector
  42              		.section	.text.UART_SCB_IRQ_GetVector,"ax",%progbits
  43              		.align	2
  44              		.global	UART_SCB_IRQ_GetVector
  45              		.code	16
  46              		.thumb_func
  47              		.type	UART_SCB_IRQ_GetVector, %function
  48              	UART_SCB_IRQ_GetVector:
  49              	.LFB4:
 203:.\Generated_Source\PSoC4/UART_SCB_IRQ.c **** 
 204:.\Generated_Source\PSoC4/UART_SCB_IRQ.c **** 
 205:.\Generated_Source\PSoC4/UART_SCB_IRQ.c **** /*******************************************************************************
 206:.\Generated_Source\PSoC4/UART_SCB_IRQ.c **** * Function Name: UART_SCB_IRQ_GetVector
 207:.\Generated_Source\PSoC4/UART_SCB_IRQ.c **** ********************************************************************************
 208:.\Generated_Source\PSoC4/UART_SCB_IRQ.c **** *
 209:.\Generated_Source\PSoC4/UART_SCB_IRQ.c **** * Summary:
 210:.\Generated_Source\PSoC4/UART_SCB_IRQ.c **** *   Gets the "address" of the current ISR vector for the Interrupt.
 211:.\Generated_Source\PSoC4/UART_SCB_IRQ.c **** *
 212:.\Generated_Source\PSoC4/UART_SCB_IRQ.c **** * Parameters:
 213:.\Generated_Source\PSoC4/UART_SCB_IRQ.c **** *   None
 214:.\Generated_Source\PSoC4/UART_SCB_IRQ.c **** *
 215:.\Generated_Source\PSoC4/UART_SCB_IRQ.c **** * Return:
 216:.\Generated_Source\PSoC4/UART_SCB_IRQ.c **** *   Address of the ISR in the interrupt vector table.
 217:.\Generated_Source\PSoC4/UART_SCB_IRQ.c **** *
 218:.\Generated_Source\PSoC4/UART_SCB_IRQ.c **** *******************************************************************************/
 219:.\Generated_Source\PSoC4/UART_SCB_IRQ.c **** cyisraddress UART_SCB_IRQ_GetVector(void)
 220:.\Generated_Source\PSoC4/UART_SCB_IRQ.c **** {
  50              		.loc 1 220 0
  51              		.cfi_startproc
 221:.\Generated_Source\PSoC4/UART_SCB_IRQ.c ****     return CyRamVectors[CYINT_IRQ_BASE + UART_SCB_IRQ__INTC_NUMBER];
  52              		.loc 1 221 0
  53 0000 014B     		ldr	r3, .L5
  54 0002 986E     		ldr	r0, [r3, #104]
 222:.\Generated_Source\PSoC4/UART_SCB_IRQ.c **** }
  55              		.loc 1 222 0
  56              		@ sp needed
  57 0004 7047     		bx	lr
  58              	.L6:
  59 0006 C046     		.align	2
  60              	.L5:
  61 0008 00000000 		.word	CyRamVectors
  62              		.cfi_endproc
  63              	.LFE4:
ARM GAS  C:\Users\Administrator\AppData\Local\Temp\cc6qiYyN.s 			page 6


  64              		.size	UART_SCB_IRQ_GetVector, .-UART_SCB_IRQ_GetVector
  65              		.section	.text.UART_SCB_IRQ_SetPriority,"ax",%progbits
  66              		.align	2
  67              		.global	UART_SCB_IRQ_SetPriority
  68              		.code	16
  69              		.thumb_func
  70              		.type	UART_SCB_IRQ_SetPriority, %function
  71              	UART_SCB_IRQ_SetPriority:
  72              	.LFB5:
 223:.\Generated_Source\PSoC4/UART_SCB_IRQ.c **** 
 224:.\Generated_Source\PSoC4/UART_SCB_IRQ.c **** 
 225:.\Generated_Source\PSoC4/UART_SCB_IRQ.c **** /*******************************************************************************
 226:.\Generated_Source\PSoC4/UART_SCB_IRQ.c **** * Function Name: UART_SCB_IRQ_SetPriority
 227:.\Generated_Source\PSoC4/UART_SCB_IRQ.c **** ********************************************************************************
 228:.\Generated_Source\PSoC4/UART_SCB_IRQ.c **** *
 229:.\Generated_Source\PSoC4/UART_SCB_IRQ.c **** * Summary:
 230:.\Generated_Source\PSoC4/UART_SCB_IRQ.c **** *   Sets the Priority of the Interrupt. 
 231:.\Generated_Source\PSoC4/UART_SCB_IRQ.c **** *
 232:.\Generated_Source\PSoC4/UART_SCB_IRQ.c **** *   Note calling UART_SCB_IRQ_Start or UART_SCB_IRQ_StartEx will 
 233:.\Generated_Source\PSoC4/UART_SCB_IRQ.c **** *   override any effect this API would have had. This API should only be called
 234:.\Generated_Source\PSoC4/UART_SCB_IRQ.c **** *   after UART_SCB_IRQ_Start or UART_SCB_IRQ_StartEx has been called. 
 235:.\Generated_Source\PSoC4/UART_SCB_IRQ.c **** *   To set the initial priority for the component, use the Design-Wide Resources
 236:.\Generated_Source\PSoC4/UART_SCB_IRQ.c **** *   Interrupt Editor.
 237:.\Generated_Source\PSoC4/UART_SCB_IRQ.c **** *
 238:.\Generated_Source\PSoC4/UART_SCB_IRQ.c **** *   Note This API has no effect on Non-maskable interrupt NMI).
 239:.\Generated_Source\PSoC4/UART_SCB_IRQ.c **** *
 240:.\Generated_Source\PSoC4/UART_SCB_IRQ.c **** * Parameters:
 241:.\Generated_Source\PSoC4/UART_SCB_IRQ.c **** *   priority: Priority of the interrupt, 0 being the highest priority
 242:.\Generated_Source\PSoC4/UART_SCB_IRQ.c **** *             PSoC 3 and PSoC 5LP: Priority is from 0 to 7.
 243:.\Generated_Source\PSoC4/UART_SCB_IRQ.c **** *             PSoC 4: Priority is from 0 to 3.
 244:.\Generated_Source\PSoC4/UART_SCB_IRQ.c **** *
 245:.\Generated_Source\PSoC4/UART_SCB_IRQ.c **** * Return:
 246:.\Generated_Source\PSoC4/UART_SCB_IRQ.c **** *   None
 247:.\Generated_Source\PSoC4/UART_SCB_IRQ.c **** *
 248:.\Generated_Source\PSoC4/UART_SCB_IRQ.c **** *******************************************************************************/
 249:.\Generated_Source\PSoC4/UART_SCB_IRQ.c **** void UART_SCB_IRQ_SetPriority(uint8 priority)
 250:.\Generated_Source\PSoC4/UART_SCB_IRQ.c **** {
  73              		.loc 1 250 0
  74              		.cfi_startproc
  75              	.LVL1:
  76 0000 10B5     		push	{r4, lr}
  77              		.cfi_def_cfa_offset 8
  78              		.cfi_offset 4, -8
  79              		.cfi_offset 14, -4
  80 0002 041C     		mov	r4, r0
  81              	.LVL2:
 251:.\Generated_Source\PSoC4/UART_SCB_IRQ.c **** 	uint8 interruptState;
 252:.\Generated_Source\PSoC4/UART_SCB_IRQ.c ****     uint32 priorityOffset = ((UART_SCB_IRQ__INTC_NUMBER % 4u) * 8u) + 6u;
 253:.\Generated_Source\PSoC4/UART_SCB_IRQ.c ****     
 254:.\Generated_Source\PSoC4/UART_SCB_IRQ.c **** 	interruptState = CyEnterCriticalSection();
  82              		.loc 1 254 0
  83 0004 FFF7FEFF 		bl	CyEnterCriticalSection
  84              	.LVL3:
 255:.\Generated_Source\PSoC4/UART_SCB_IRQ.c ****     *UART_SCB_IRQ_INTC_PRIOR = (*UART_SCB_IRQ_INTC_PRIOR & (uint32)(~UART_SCB_IRQ__INTC_PRIOR_MASK)
  85              		.loc 1 255 0
  86 0008 044A     		ldr	r2, .L8
  87 000a 1168     		ldr	r1, [r2]
ARM GAS  C:\Users\Administrator\AppData\Local\Temp\cc6qiYyN.s 			page 7


  88 000c 044B     		ldr	r3, .L8+4
  89 000e 0B40     		and	r3, r1
 256:.\Generated_Source\PSoC4/UART_SCB_IRQ.c ****                                     ((uint32)priority << priorityOffset);
  90              		.loc 1 256 0
  91 0010 A405     		lsl	r4, r4, #22
 255:.\Generated_Source\PSoC4/UART_SCB_IRQ.c ****     *UART_SCB_IRQ_INTC_PRIOR = (*UART_SCB_IRQ_INTC_PRIOR & (uint32)(~UART_SCB_IRQ__INTC_PRIOR_MASK)
  92              		.loc 1 255 0
  93 0012 1C43     		orr	r4, r3
  94 0014 1460     		str	r4, [r2]
 257:.\Generated_Source\PSoC4/UART_SCB_IRQ.c **** 	CyExitCriticalSection(interruptState);
  95              		.loc 1 257 0
  96 0016 FFF7FEFF 		bl	CyExitCriticalSection
  97              	.LVL4:
 258:.\Generated_Source\PSoC4/UART_SCB_IRQ.c **** }
  98              		.loc 1 258 0
  99              		@ sp needed
 100 001a 10BD     		pop	{r4, pc}
 101              	.L9:
 102              		.align	2
 103              	.L8:
 104 001c 08E400E0 		.word	-536812536
 105 0020 FFFF3FFF 		.word	-12582913
 106              		.cfi_endproc
 107              	.LFE5:
 108              		.size	UART_SCB_IRQ_SetPriority, .-UART_SCB_IRQ_SetPriority
 109              		.section	.text.UART_SCB_IRQ_GetPriority,"ax",%progbits
 110              		.align	2
 111              		.global	UART_SCB_IRQ_GetPriority
 112              		.code	16
 113              		.thumb_func
 114              		.type	UART_SCB_IRQ_GetPriority, %function
 115              	UART_SCB_IRQ_GetPriority:
 116              	.LFB6:
 259:.\Generated_Source\PSoC4/UART_SCB_IRQ.c **** 
 260:.\Generated_Source\PSoC4/UART_SCB_IRQ.c **** 
 261:.\Generated_Source\PSoC4/UART_SCB_IRQ.c **** /*******************************************************************************
 262:.\Generated_Source\PSoC4/UART_SCB_IRQ.c **** * Function Name: UART_SCB_IRQ_GetPriority
 263:.\Generated_Source\PSoC4/UART_SCB_IRQ.c **** ********************************************************************************
 264:.\Generated_Source\PSoC4/UART_SCB_IRQ.c **** *
 265:.\Generated_Source\PSoC4/UART_SCB_IRQ.c **** * Summary:
 266:.\Generated_Source\PSoC4/UART_SCB_IRQ.c **** *   Gets the Priority of the Interrupt.
 267:.\Generated_Source\PSoC4/UART_SCB_IRQ.c **** *
 268:.\Generated_Source\PSoC4/UART_SCB_IRQ.c **** * Parameters:
 269:.\Generated_Source\PSoC4/UART_SCB_IRQ.c **** *   None
 270:.\Generated_Source\PSoC4/UART_SCB_IRQ.c **** *
 271:.\Generated_Source\PSoC4/UART_SCB_IRQ.c **** * Return:
 272:.\Generated_Source\PSoC4/UART_SCB_IRQ.c **** *   Priority of the interrupt, 0 being the highest priority
 273:.\Generated_Source\PSoC4/UART_SCB_IRQ.c **** *    PSoC 3 and PSoC 5LP: Priority is from 0 to 7.
 274:.\Generated_Source\PSoC4/UART_SCB_IRQ.c **** *    PSoC 4: Priority is from 0 to 3.
 275:.\Generated_Source\PSoC4/UART_SCB_IRQ.c **** *
 276:.\Generated_Source\PSoC4/UART_SCB_IRQ.c **** *******************************************************************************/
 277:.\Generated_Source\PSoC4/UART_SCB_IRQ.c **** uint8 UART_SCB_IRQ_GetPriority(void)
 278:.\Generated_Source\PSoC4/UART_SCB_IRQ.c **** {
 117              		.loc 1 278 0
 118              		.cfi_startproc
 119              	.LVL5:
 279:.\Generated_Source\PSoC4/UART_SCB_IRQ.c ****     uint32 priority;
ARM GAS  C:\Users\Administrator\AppData\Local\Temp\cc6qiYyN.s 			page 8


 280:.\Generated_Source\PSoC4/UART_SCB_IRQ.c **** 	uint32 priorityOffset = ((UART_SCB_IRQ__INTC_NUMBER % 4u) * 8u) + 6u;
 281:.\Generated_Source\PSoC4/UART_SCB_IRQ.c **** 
 282:.\Generated_Source\PSoC4/UART_SCB_IRQ.c ****     priority = (*UART_SCB_IRQ_INTC_PRIOR & UART_SCB_IRQ__INTC_PRIOR_MASK) >> priorityOffset;
 120              		.loc 1 282 0
 121 0000 024B     		ldr	r3, .L11
 122 0002 1868     		ldr	r0, [r3]
 123 0004 0002     		lsl	r0, r0, #8
 124              	.LVL6:
 283:.\Generated_Source\PSoC4/UART_SCB_IRQ.c **** 
 284:.\Generated_Source\PSoC4/UART_SCB_IRQ.c ****     return (uint8)priority;
 125              		.loc 1 284 0
 126 0006 800F     		lsr	r0, r0, #30
 127              	.LVL7:
 285:.\Generated_Source\PSoC4/UART_SCB_IRQ.c **** }
 128              		.loc 1 285 0
 129              		@ sp needed
 130 0008 7047     		bx	lr
 131              	.L12:
 132 000a C046     		.align	2
 133              	.L11:
 134 000c 08E400E0 		.word	-536812536
 135              		.cfi_endproc
 136              	.LFE6:
 137              		.size	UART_SCB_IRQ_GetPriority, .-UART_SCB_IRQ_GetPriority
 138              		.section	.text.UART_SCB_IRQ_Enable,"ax",%progbits
 139              		.align	2
 140              		.global	UART_SCB_IRQ_Enable
 141              		.code	16
 142              		.thumb_func
 143              		.type	UART_SCB_IRQ_Enable, %function
 144              	UART_SCB_IRQ_Enable:
 145              	.LFB7:
 286:.\Generated_Source\PSoC4/UART_SCB_IRQ.c **** 
 287:.\Generated_Source\PSoC4/UART_SCB_IRQ.c **** 
 288:.\Generated_Source\PSoC4/UART_SCB_IRQ.c **** /*******************************************************************************
 289:.\Generated_Source\PSoC4/UART_SCB_IRQ.c **** * Function Name: UART_SCB_IRQ_Enable
 290:.\Generated_Source\PSoC4/UART_SCB_IRQ.c **** ********************************************************************************
 291:.\Generated_Source\PSoC4/UART_SCB_IRQ.c **** *
 292:.\Generated_Source\PSoC4/UART_SCB_IRQ.c **** * Summary:
 293:.\Generated_Source\PSoC4/UART_SCB_IRQ.c **** *   Enables the interrupt to the interrupt controller. Do not call this function
 294:.\Generated_Source\PSoC4/UART_SCB_IRQ.c **** *   unless ISR_Start() has been called or the functionality of the ISR_Start() 
 295:.\Generated_Source\PSoC4/UART_SCB_IRQ.c **** *   function, which sets the vector and the priority, has been called.
 296:.\Generated_Source\PSoC4/UART_SCB_IRQ.c **** *
 297:.\Generated_Source\PSoC4/UART_SCB_IRQ.c **** * Parameters:
 298:.\Generated_Source\PSoC4/UART_SCB_IRQ.c **** *   None
 299:.\Generated_Source\PSoC4/UART_SCB_IRQ.c **** *
 300:.\Generated_Source\PSoC4/UART_SCB_IRQ.c **** * Return:
 301:.\Generated_Source\PSoC4/UART_SCB_IRQ.c **** *   None
 302:.\Generated_Source\PSoC4/UART_SCB_IRQ.c **** *
 303:.\Generated_Source\PSoC4/UART_SCB_IRQ.c **** *******************************************************************************/
 304:.\Generated_Source\PSoC4/UART_SCB_IRQ.c **** void UART_SCB_IRQ_Enable(void)
 305:.\Generated_Source\PSoC4/UART_SCB_IRQ.c **** {
 146              		.loc 1 305 0
 147              		.cfi_startproc
 306:.\Generated_Source\PSoC4/UART_SCB_IRQ.c ****     /* Enable the general interrupt. */
 307:.\Generated_Source\PSoC4/UART_SCB_IRQ.c ****     *UART_SCB_IRQ_INTC_SET_EN = UART_SCB_IRQ__INTC_MASK;
 148              		.loc 1 307 0
ARM GAS  C:\Users\Administrator\AppData\Local\Temp\cc6qiYyN.s 			page 9


 149 0000 8022     		mov	r2, #128
 150 0002 D200     		lsl	r2, r2, #3
 151 0004 014B     		ldr	r3, .L14
 152 0006 1A60     		str	r2, [r3]
 308:.\Generated_Source\PSoC4/UART_SCB_IRQ.c **** }
 153              		.loc 1 308 0
 154              		@ sp needed
 155 0008 7047     		bx	lr
 156              	.L15:
 157 000a C046     		.align	2
 158              	.L14:
 159 000c 00E100E0 		.word	-536813312
 160              		.cfi_endproc
 161              	.LFE7:
 162              		.size	UART_SCB_IRQ_Enable, .-UART_SCB_IRQ_Enable
 163              		.section	.text.UART_SCB_IRQ_GetState,"ax",%progbits
 164              		.align	2
 165              		.global	UART_SCB_IRQ_GetState
 166              		.code	16
 167              		.thumb_func
 168              		.type	UART_SCB_IRQ_GetState, %function
 169              	UART_SCB_IRQ_GetState:
 170              	.LFB8:
 309:.\Generated_Source\PSoC4/UART_SCB_IRQ.c **** 
 310:.\Generated_Source\PSoC4/UART_SCB_IRQ.c **** 
 311:.\Generated_Source\PSoC4/UART_SCB_IRQ.c **** /*******************************************************************************
 312:.\Generated_Source\PSoC4/UART_SCB_IRQ.c **** * Function Name: UART_SCB_IRQ_GetState
 313:.\Generated_Source\PSoC4/UART_SCB_IRQ.c **** ********************************************************************************
 314:.\Generated_Source\PSoC4/UART_SCB_IRQ.c **** *
 315:.\Generated_Source\PSoC4/UART_SCB_IRQ.c **** * Summary:
 316:.\Generated_Source\PSoC4/UART_SCB_IRQ.c **** *   Gets the state (enabled, disabled) of the Interrupt.
 317:.\Generated_Source\PSoC4/UART_SCB_IRQ.c **** *
 318:.\Generated_Source\PSoC4/UART_SCB_IRQ.c **** * Parameters:
 319:.\Generated_Source\PSoC4/UART_SCB_IRQ.c **** *   None
 320:.\Generated_Source\PSoC4/UART_SCB_IRQ.c **** *
 321:.\Generated_Source\PSoC4/UART_SCB_IRQ.c **** * Return:
 322:.\Generated_Source\PSoC4/UART_SCB_IRQ.c **** *   1 if enabled, 0 if disabled.
 323:.\Generated_Source\PSoC4/UART_SCB_IRQ.c **** *
 324:.\Generated_Source\PSoC4/UART_SCB_IRQ.c **** *******************************************************************************/
 325:.\Generated_Source\PSoC4/UART_SCB_IRQ.c **** uint8 UART_SCB_IRQ_GetState(void)
 326:.\Generated_Source\PSoC4/UART_SCB_IRQ.c **** {
 171              		.loc 1 326 0
 172              		.cfi_startproc
 327:.\Generated_Source\PSoC4/UART_SCB_IRQ.c ****     /* Get the state of the general interrupt. */
 328:.\Generated_Source\PSoC4/UART_SCB_IRQ.c ****     return ((*UART_SCB_IRQ_INTC_SET_EN & (uint32)UART_SCB_IRQ__INTC_MASK) != 0u) ? 1u:0u;
 173              		.loc 1 328 0
 174 0000 034B     		ldr	r3, .L19
 175 0002 1B68     		ldr	r3, [r3]
 176 0004 5B05     		lsl	r3, r3, #21
 177 0006 01D5     		bpl	.L18
 178 0008 0120     		mov	r0, #1
 179 000a 00E0     		b	.L17
 180              	.L18:
 181 000c 0020     		mov	r0, #0
 182              	.L17:
 329:.\Generated_Source\PSoC4/UART_SCB_IRQ.c **** }
 183              		.loc 1 329 0 discriminator 4
ARM GAS  C:\Users\Administrator\AppData\Local\Temp\cc6qiYyN.s 			page 10


 184              		@ sp needed
 185 000e 7047     		bx	lr
 186              	.L20:
 187              		.align	2
 188              	.L19:
 189 0010 00E100E0 		.word	-536813312
 190              		.cfi_endproc
 191              	.LFE8:
 192              		.size	UART_SCB_IRQ_GetState, .-UART_SCB_IRQ_GetState
 193              		.section	.text.UART_SCB_IRQ_Disable,"ax",%progbits
 194              		.align	2
 195              		.global	UART_SCB_IRQ_Disable
 196              		.code	16
 197              		.thumb_func
 198              		.type	UART_SCB_IRQ_Disable, %function
 199              	UART_SCB_IRQ_Disable:
 200              	.LFB9:
 330:.\Generated_Source\PSoC4/UART_SCB_IRQ.c **** 
 331:.\Generated_Source\PSoC4/UART_SCB_IRQ.c **** 
 332:.\Generated_Source\PSoC4/UART_SCB_IRQ.c **** /*******************************************************************************
 333:.\Generated_Source\PSoC4/UART_SCB_IRQ.c **** * Function Name: UART_SCB_IRQ_Disable
 334:.\Generated_Source\PSoC4/UART_SCB_IRQ.c **** ********************************************************************************
 335:.\Generated_Source\PSoC4/UART_SCB_IRQ.c **** *
 336:.\Generated_Source\PSoC4/UART_SCB_IRQ.c **** * Summary:
 337:.\Generated_Source\PSoC4/UART_SCB_IRQ.c **** *   Disables the Interrupt in the interrupt controller.
 338:.\Generated_Source\PSoC4/UART_SCB_IRQ.c **** *
 339:.\Generated_Source\PSoC4/UART_SCB_IRQ.c **** * Parameters:
 340:.\Generated_Source\PSoC4/UART_SCB_IRQ.c **** *   None
 341:.\Generated_Source\PSoC4/UART_SCB_IRQ.c **** *
 342:.\Generated_Source\PSoC4/UART_SCB_IRQ.c **** * Return:
 343:.\Generated_Source\PSoC4/UART_SCB_IRQ.c **** *   None
 344:.\Generated_Source\PSoC4/UART_SCB_IRQ.c **** *
 345:.\Generated_Source\PSoC4/UART_SCB_IRQ.c **** *******************************************************************************/
 346:.\Generated_Source\PSoC4/UART_SCB_IRQ.c **** void UART_SCB_IRQ_Disable(void)
 347:.\Generated_Source\PSoC4/UART_SCB_IRQ.c **** {
 201              		.loc 1 347 0
 202              		.cfi_startproc
 348:.\Generated_Source\PSoC4/UART_SCB_IRQ.c ****     /* Disable the general interrupt. */
 349:.\Generated_Source\PSoC4/UART_SCB_IRQ.c ****     *UART_SCB_IRQ_INTC_CLR_EN = UART_SCB_IRQ__INTC_MASK;
 203              		.loc 1 349 0
 204 0000 8022     		mov	r2, #128
 205 0002 D200     		lsl	r2, r2, #3
 206 0004 014B     		ldr	r3, .L22
 207 0006 1A60     		str	r2, [r3]
 350:.\Generated_Source\PSoC4/UART_SCB_IRQ.c **** }
 208              		.loc 1 350 0
 209              		@ sp needed
 210 0008 7047     		bx	lr
 211              	.L23:
 212 000a C046     		.align	2
 213              	.L22:
 214 000c 80E100E0 		.word	-536813184
 215              		.cfi_endproc
 216              	.LFE9:
 217              		.size	UART_SCB_IRQ_Disable, .-UART_SCB_IRQ_Disable
 218              		.section	.text.UART_SCB_IRQ_Start,"ax",%progbits
 219              		.align	2
ARM GAS  C:\Users\Administrator\AppData\Local\Temp\cc6qiYyN.s 			page 11


 220              		.global	UART_SCB_IRQ_Start
 221              		.code	16
 222              		.thumb_func
 223              		.type	UART_SCB_IRQ_Start, %function
 224              	UART_SCB_IRQ_Start:
 225              	.LFB0:
  57:.\Generated_Source\PSoC4/UART_SCB_IRQ.c ****     /* For all we know the interrupt is active. */
 226              		.loc 1 57 0
 227              		.cfi_startproc
 228 0000 08B5     		push	{r3, lr}
 229              		.cfi_def_cfa_offset 8
 230              		.cfi_offset 3, -8
 231              		.cfi_offset 14, -4
  59:.\Generated_Source\PSoC4/UART_SCB_IRQ.c **** 
 232              		.loc 1 59 0
 233 0002 FFF7FEFF 		bl	UART_SCB_IRQ_Disable
 234              	.LVL8:
  62:.\Generated_Source\PSoC4/UART_SCB_IRQ.c **** 
 235              		.loc 1 62 0
 236 0006 0448     		ldr	r0, .L25
 237 0008 FFF7FEFF 		bl	UART_SCB_IRQ_SetVector
 238              	.LVL9:
  65:.\Generated_Source\PSoC4/UART_SCB_IRQ.c **** 
 239              		.loc 1 65 0
 240 000c 0320     		mov	r0, #3
 241 000e FFF7FEFF 		bl	UART_SCB_IRQ_SetPriority
 242              	.LVL10:
  68:.\Generated_Source\PSoC4/UART_SCB_IRQ.c **** }
 243              		.loc 1 68 0
 244 0012 FFF7FEFF 		bl	UART_SCB_IRQ_Enable
 245              	.LVL11:
  69:.\Generated_Source\PSoC4/UART_SCB_IRQ.c **** 
 246              		.loc 1 69 0
 247              		@ sp needed
 248 0016 08BD     		pop	{r3, pc}
 249              	.L26:
 250              		.align	2
 251              	.L25:
 252 0018 00000000 		.word	UART_SCB_IRQ_Interrupt
 253              		.cfi_endproc
 254              	.LFE0:
 255              		.size	UART_SCB_IRQ_Start, .-UART_SCB_IRQ_Start
 256              		.section	.text.UART_SCB_IRQ_StartEx,"ax",%progbits
 257              		.align	2
 258              		.global	UART_SCB_IRQ_StartEx
 259              		.code	16
 260              		.thumb_func
 261              		.type	UART_SCB_IRQ_StartEx, %function
 262              	UART_SCB_IRQ_StartEx:
 263              	.LFB1:
 100:.\Generated_Source\PSoC4/UART_SCB_IRQ.c ****     /* For all we know the interrupt is active. */
 264              		.loc 1 100 0
 265              		.cfi_startproc
 266              	.LVL12:
 267 0000 10B5     		push	{r4, lr}
 268              		.cfi_def_cfa_offset 8
 269              		.cfi_offset 4, -8
ARM GAS  C:\Users\Administrator\AppData\Local\Temp\cc6qiYyN.s 			page 12


 270              		.cfi_offset 14, -4
 271 0002 041C     		mov	r4, r0
 102:.\Generated_Source\PSoC4/UART_SCB_IRQ.c **** 
 272              		.loc 1 102 0
 273 0004 FFF7FEFF 		bl	UART_SCB_IRQ_Disable
 274              	.LVL13:
 105:.\Generated_Source\PSoC4/UART_SCB_IRQ.c **** 
 275              		.loc 1 105 0
 276 0008 201C     		mov	r0, r4
 277 000a FFF7FEFF 		bl	UART_SCB_IRQ_SetVector
 278              	.LVL14:
 108:.\Generated_Source\PSoC4/UART_SCB_IRQ.c **** 
 279              		.loc 1 108 0
 280 000e 0320     		mov	r0, #3
 281 0010 FFF7FEFF 		bl	UART_SCB_IRQ_SetPriority
 282              	.LVL15:
 111:.\Generated_Source\PSoC4/UART_SCB_IRQ.c **** }
 283              		.loc 1 111 0
 284 0014 FFF7FEFF 		bl	UART_SCB_IRQ_Enable
 285              	.LVL16:
 112:.\Generated_Source\PSoC4/UART_SCB_IRQ.c **** 
 286              		.loc 1 112 0
 287              		@ sp needed
 288              	.LVL17:
 289 0018 10BD     		pop	{r4, pc}
 290              		.cfi_endproc
 291              	.LFE1:
 292              		.size	UART_SCB_IRQ_StartEx, .-UART_SCB_IRQ_StartEx
 293 001a C046     		.section	.text.UART_SCB_IRQ_Stop,"ax",%progbits
 294              		.align	2
 295              		.global	UART_SCB_IRQ_Stop
 296              		.code	16
 297              		.thumb_func
 298              		.type	UART_SCB_IRQ_Stop, %function
 299              	UART_SCB_IRQ_Stop:
 300              	.LFB2:
 130:.\Generated_Source\PSoC4/UART_SCB_IRQ.c ****     /* Disable this interrupt. */
 301              		.loc 1 130 0
 302              		.cfi_startproc
 303 0000 08B5     		push	{r3, lr}
 304              		.cfi_def_cfa_offset 8
 305              		.cfi_offset 3, -8
 306              		.cfi_offset 14, -4
 132:.\Generated_Source\PSoC4/UART_SCB_IRQ.c **** 
 307              		.loc 1 132 0
 308 0002 FFF7FEFF 		bl	UART_SCB_IRQ_Disable
 309              	.LVL18:
 135:.\Generated_Source\PSoC4/UART_SCB_IRQ.c **** }
 310              		.loc 1 135 0
 311 0006 0248     		ldr	r0, .L29
 312 0008 FFF7FEFF 		bl	UART_SCB_IRQ_SetVector
 313              	.LVL19:
 136:.\Generated_Source\PSoC4/UART_SCB_IRQ.c **** 
 314              		.loc 1 136 0
 315              		@ sp needed
 316 000c 08BD     		pop	{r3, pc}
 317              	.L30:
ARM GAS  C:\Users\Administrator\AppData\Local\Temp\cc6qiYyN.s 			page 13


 318 000e C046     		.align	2
 319              	.L29:
 320 0010 00000000 		.word	IntDefaultHandler
 321              		.cfi_endproc
 322              	.LFE2:
 323              		.size	UART_SCB_IRQ_Stop, .-UART_SCB_IRQ_Stop
 324              		.section	.text.UART_SCB_IRQ_SetPending,"ax",%progbits
 325              		.align	2
 326              		.global	UART_SCB_IRQ_SetPending
 327              		.code	16
 328              		.thumb_func
 329              		.type	UART_SCB_IRQ_SetPending, %function
 330              	UART_SCB_IRQ_SetPending:
 331              	.LFB10:
 351:.\Generated_Source\PSoC4/UART_SCB_IRQ.c **** 
 352:.\Generated_Source\PSoC4/UART_SCB_IRQ.c **** 
 353:.\Generated_Source\PSoC4/UART_SCB_IRQ.c **** /*******************************************************************************
 354:.\Generated_Source\PSoC4/UART_SCB_IRQ.c **** * Function Name: UART_SCB_IRQ_SetPending
 355:.\Generated_Source\PSoC4/UART_SCB_IRQ.c **** ********************************************************************************
 356:.\Generated_Source\PSoC4/UART_SCB_IRQ.c **** *
 357:.\Generated_Source\PSoC4/UART_SCB_IRQ.c **** * Summary:
 358:.\Generated_Source\PSoC4/UART_SCB_IRQ.c **** *   Causes the Interrupt to enter the pending state, a software method of
 359:.\Generated_Source\PSoC4/UART_SCB_IRQ.c **** *   generating the interrupt.
 360:.\Generated_Source\PSoC4/UART_SCB_IRQ.c **** *
 361:.\Generated_Source\PSoC4/UART_SCB_IRQ.c **** * Parameters:
 362:.\Generated_Source\PSoC4/UART_SCB_IRQ.c **** *   None
 363:.\Generated_Source\PSoC4/UART_SCB_IRQ.c **** *
 364:.\Generated_Source\PSoC4/UART_SCB_IRQ.c **** * Return:
 365:.\Generated_Source\PSoC4/UART_SCB_IRQ.c **** *   None
 366:.\Generated_Source\PSoC4/UART_SCB_IRQ.c **** *
 367:.\Generated_Source\PSoC4/UART_SCB_IRQ.c **** * Side Effects:
 368:.\Generated_Source\PSoC4/UART_SCB_IRQ.c **** *   If interrupts are enabled and the interrupt is set up properly, the ISR is
 369:.\Generated_Source\PSoC4/UART_SCB_IRQ.c **** *   entered (depending on the priority of this interrupt and other pending 
 370:.\Generated_Source\PSoC4/UART_SCB_IRQ.c **** *   interrupts).
 371:.\Generated_Source\PSoC4/UART_SCB_IRQ.c **** *
 372:.\Generated_Source\PSoC4/UART_SCB_IRQ.c **** *******************************************************************************/
 373:.\Generated_Source\PSoC4/UART_SCB_IRQ.c **** void UART_SCB_IRQ_SetPending(void)
 374:.\Generated_Source\PSoC4/UART_SCB_IRQ.c **** {
 332              		.loc 1 374 0
 333              		.cfi_startproc
 375:.\Generated_Source\PSoC4/UART_SCB_IRQ.c ****     *UART_SCB_IRQ_INTC_SET_PD = UART_SCB_IRQ__INTC_MASK;
 334              		.loc 1 375 0
 335 0000 8022     		mov	r2, #128
 336 0002 D200     		lsl	r2, r2, #3
 337 0004 014B     		ldr	r3, .L32
 338 0006 1A60     		str	r2, [r3]
 376:.\Generated_Source\PSoC4/UART_SCB_IRQ.c **** }
 339              		.loc 1 376 0
 340              		@ sp needed
 341 0008 7047     		bx	lr
 342              	.L33:
 343 000a C046     		.align	2
 344              	.L32:
 345 000c 00E200E0 		.word	-536813056
 346              		.cfi_endproc
 347              	.LFE10:
 348              		.size	UART_SCB_IRQ_SetPending, .-UART_SCB_IRQ_SetPending
ARM GAS  C:\Users\Administrator\AppData\Local\Temp\cc6qiYyN.s 			page 14


 349              		.section	.text.UART_SCB_IRQ_ClearPending,"ax",%progbits
 350              		.align	2
 351              		.global	UART_SCB_IRQ_ClearPending
 352              		.code	16
 353              		.thumb_func
 354              		.type	UART_SCB_IRQ_ClearPending, %function
 355              	UART_SCB_IRQ_ClearPending:
 356              	.LFB11:
 377:.\Generated_Source\PSoC4/UART_SCB_IRQ.c **** 
 378:.\Generated_Source\PSoC4/UART_SCB_IRQ.c **** 
 379:.\Generated_Source\PSoC4/UART_SCB_IRQ.c **** /*******************************************************************************
 380:.\Generated_Source\PSoC4/UART_SCB_IRQ.c **** * Function Name: UART_SCB_IRQ_ClearPending
 381:.\Generated_Source\PSoC4/UART_SCB_IRQ.c **** ********************************************************************************
 382:.\Generated_Source\PSoC4/UART_SCB_IRQ.c **** *
 383:.\Generated_Source\PSoC4/UART_SCB_IRQ.c **** * Summary:
 384:.\Generated_Source\PSoC4/UART_SCB_IRQ.c **** *   Clears a pending interrupt in the interrupt controller.
 385:.\Generated_Source\PSoC4/UART_SCB_IRQ.c **** *
 386:.\Generated_Source\PSoC4/UART_SCB_IRQ.c **** *   Note Some interrupt sources are clear-on-read and require the block 
 387:.\Generated_Source\PSoC4/UART_SCB_IRQ.c **** *   interrupt/status register to be read/cleared with the appropriate block API 
 388:.\Generated_Source\PSoC4/UART_SCB_IRQ.c **** *   (GPIO, UART, and so on). Otherwise the ISR will continue to remain in 
 389:.\Generated_Source\PSoC4/UART_SCB_IRQ.c **** *   pending state even though the interrupt itself is cleared using this API.
 390:.\Generated_Source\PSoC4/UART_SCB_IRQ.c **** *
 391:.\Generated_Source\PSoC4/UART_SCB_IRQ.c **** * Parameters:
 392:.\Generated_Source\PSoC4/UART_SCB_IRQ.c **** *   None
 393:.\Generated_Source\PSoC4/UART_SCB_IRQ.c **** *
 394:.\Generated_Source\PSoC4/UART_SCB_IRQ.c **** * Return:
 395:.\Generated_Source\PSoC4/UART_SCB_IRQ.c **** *   None
 396:.\Generated_Source\PSoC4/UART_SCB_IRQ.c **** *
 397:.\Generated_Source\PSoC4/UART_SCB_IRQ.c **** *******************************************************************************/
 398:.\Generated_Source\PSoC4/UART_SCB_IRQ.c **** void UART_SCB_IRQ_ClearPending(void)
 399:.\Generated_Source\PSoC4/UART_SCB_IRQ.c **** {
 357              		.loc 1 399 0
 358              		.cfi_startproc
 400:.\Generated_Source\PSoC4/UART_SCB_IRQ.c ****     *UART_SCB_IRQ_INTC_CLR_PD = UART_SCB_IRQ__INTC_MASK;
 359              		.loc 1 400 0
 360 0000 8022     		mov	r2, #128
 361 0002 D200     		lsl	r2, r2, #3
 362 0004 014B     		ldr	r3, .L35
 363 0006 1A60     		str	r2, [r3]
 401:.\Generated_Source\PSoC4/UART_SCB_IRQ.c **** }
 364              		.loc 1 401 0
 365              		@ sp needed
 366 0008 7047     		bx	lr
 367              	.L36:
 368 000a C046     		.align	2
 369              	.L35:
 370 000c 80E200E0 		.word	-536812928
 371              		.cfi_endproc
 372              	.LFE11:
 373              		.size	UART_SCB_IRQ_ClearPending, .-UART_SCB_IRQ_ClearPending
 374              		.text
 375              	.Letext0:
 376              		.file 2 "Generated_Source\\PSoC4/cytypes.h"
 377              		.file 3 "Generated_Source\\PSoC4/CyLib.h"